; Function Attrs: mustprogress uwtable
define noundef range(i64 -60, 1) i64 @_ZN11duckdb_zstd18ZSTD_CCtx_refCDictEPNS_11ZSTD_CCtx_sEPKNS_12ZSTD_CDict_sE(ptr noundef captures(none) %0, ptr noundef %1) local_unnamed_addr #2 {
  %3 = getelementptr inbounds nuw i8, ptr %0, i64 3608
  %4 = load i32, ptr %3, align 8, !tbaa !99
  %.not = icmp eq i32 %4, 0
  br i1 %.not, label %5, label %7

5:                                                ; preds = %2
  tail call fastcc void @_ZN11duckdb_zstdL18ZSTD_clearAllDictsEPNS_11ZSTD_CCtx_sE(ptr noundef nonnull %0)
  %6 = getelementptr inbounds nuw i8, ptr %0, i64 3696
  store ptr %1, ptr %6, align 8, !tbaa !129
  br label %7

7:                                                ; preds = %2, %5
  %.0 = phi i64 [ 0, %5 ], [ -60, %2 ]
  ret i64 %.0
}